target datalayout = "e-m:e-p270:32:32-p271:32:32-p272:64:64-i64:64-i128:128-f80:128-n8:16:32:64-S128"
target triple = "x86_64-pc-linux-gnu"

%"class.osgeo::proj::util::BaseObject" = type { ptr, %"class.std::unique_ptr" }
%"class.std::unique_ptr" = type { %"struct.std::__uniq_ptr_data" }
%"struct.std::__uniq_ptr_data" = type { %"class.std::__uniq_ptr_impl" }
%"class.std::__uniq_ptr_impl" = type { %"class.std::tuple" }
%"class.std::tuple" = type { %"struct.std::_Tuple_impl" }
%"struct.std::_Tuple_impl" = type { %"struct.std::_Head_base.1" }
%"struct.std::_Head_base.1" = type { ptr }
%"class.osgeo::proj::metadata::GeographicExtent" = type { %"class.osgeo::proj::util::BaseObject", %"class.osgeo::proj::util::IComparable", %"class.std::unique_ptr.10" }
%"class.osgeo::proj::util::IComparable" = type { ptr }
%"class.std::unique_ptr.10" = type { %"struct.std::__uniq_ptr_data.11" }
%"struct.std::__uniq_ptr_data.11" = type { %"class.std::__uniq_ptr_impl.12" }
%"class.std::__uniq_ptr_impl.12" = type { %"class.std::tuple.13" }
%"class.std::tuple.13" = type { %"struct.std::_Tuple_impl.14" }
%"struct.std::_Tuple_impl.14" = type { %"struct.std::_Head_base.17" }
%"struct.std::_Head_base.17" = type { ptr }
%"class.osgeo::proj::metadata::GeographicBoundingBox" = type { %"class.osgeo::proj::metadata::GeographicExtent", %"class.std::unique_ptr.18" }
%"class.std::unique_ptr.18" = type { %"struct.std::__uniq_ptr_data.19" }
%"struct.std::__uniq_ptr_data.19" = type { %"class.std::__uniq_ptr_impl.20" }
%"class.std::__uniq_ptr_impl.20" = type { %"class.std::tuple.21" }
%"class.std::tuple.21" = type { %"struct.std::_Tuple_impl.22" }
%"struct.std::_Tuple_impl.22" = type { %"struct.std::_Head_base.25" }
%"struct.std::_Head_base.25" = type { ptr }
%"struct.osgeo::proj::metadata::GeographicBoundingBox::Private" = type { double, double, double, double }
%"class.std::__shared_count" = type { ptr }
%"class.dropbox::oxygen::nn.26" = type { %"class.std::shared_ptr.27" }
%"class.std::shared_ptr.27" = type { %"class.std::__shared_ptr.28" }
%"class.std::__shared_ptr.28" = type { ptr, %"class.std::__shared_count" }

@_ZTIN5osgeo4proj8metadata21GeographicBoundingBoxE = constant { ptr, ptr, ptr } { ptr getelementptr inbounds (ptr, ptr @_ZTVN10__cxxabiv120__si_class_type_infoE, i64 2), ptr @_ZTSN5osgeo4proj8metadata21GeographicBoundingBoxE, ptr @_ZTIN5osgeo4proj8metadata16GeographicExtentE }, align 8

; Function Attrs: mustprogress nounwind uwtable
define linkonce_odr hidden noundef nonnull align 8 dereferenceable(8) ptr @_ZNSt10_Head_baseILm0EPN5osgeo4proj8metadata21GeographicBoundingBox7PrivateELb0EE7_M_headERKS6_(ptr noundef nonnull align 8 dereferenceable(8) %0) #3 comdat align 2 {
  %2 = alloca ptr, align 8
  store ptr %0, ptr %2, align 8
  %3 = load ptr, ptr %2, align 8
  %4 = getelementptr inbounds %"struct.std::_Head_base.25", ptr %3, i32 0, i32 0
  ret ptr %4
}

; Function Attrs: mustprogress nounwind uwtable
define linkonce_odr hidden noundef nonnull align 8 dereferenceable(8) ptr @_ZNSt11_Tuple_implILm0EJPN5osgeo4proj8metadata21GeographicBoundingBox7PrivateESt14default_deleteIS4_EEE7_M_headERKS8_(ptr noundef nonnull align 8 dereferenceable(8) %0) #3 comdat align 2 {
  %2 = alloca ptr, align 8
  store ptr %0, ptr %2, align 8
  %3 = load ptr, ptr %2, align 8
  %4 = call noundef nonnull align 8 dereferenceable(8) ptr @_ZNSt10_Head_baseILm0EPN5osgeo4proj8metadata21GeographicBoundingBox7PrivateELb0EE7_M_headERKS6_(ptr noundef nonnull align 8 dereferenceable(8) %3) #19
  ret ptr %4
}

; Function Attrs: mustprogress nounwind uwtable
define linkonce_odr hidden noundef nonnull align 8 dereferenceable(8) ptr @_ZSt12__get_helperILm0EPN5osgeo4proj8metadata21GeographicBoundingBox7PrivateEJSt14default_deleteIS4_EEERKT0_RKSt11_Tuple_implIXT_EJS8_DpT1_EE(ptr noundef nonnull align 8 dereferenceable(8) %0) #3 comdat {
  %2 = alloca ptr, align 8
  store ptr %0, ptr %2, align 8
  %3 = load ptr, ptr %2, align 8
  %4 = call noundef nonnull align 8 dereferenceable(8) ptr @_ZNSt11_Tuple_implILm0EJPN5osgeo4proj8metadata21GeographicBoundingBox7PrivateESt14default_deleteIS4_EEE7_M_headERKS8_(ptr noundef nonnull align 8 dereferenceable(8) %3) #19
  ret ptr %4
}

; Function Attrs: mustprogress nounwind uwtable
define linkonce_odr hidden noundef nonnull align 8 dereferenceable(8) ptr @_ZSt3getILm0EJPN5osgeo4proj8metadata21GeographicBoundingBox7PrivateESt14default_deleteIS4_EEERKNSt13tuple_elementIXT_ESt5tupleIJDpT0_EEE4typeERKSC_(ptr noundef nonnull align 8 dereferenceable(8) %0) #3 comdat {
  %2 = alloca ptr, align 8
  store ptr %0, ptr %2, align 8
  %3 = load ptr, ptr %2, align 8
  %4 = call noundef nonnull align 8 dereferenceable(8) ptr @_ZSt12__get_helperILm0EPN5osgeo4proj8metadata21GeographicBoundingBox7PrivateEJSt14default_deleteIS4_EEERKT0_RKSt11_Tuple_implIXT_EJS8_DpT1_EE(ptr noundef nonnull align 8 dereferenceable(8) %3) #19
  ret ptr %4
}

; Function Attrs: mustprogress nounwind uwtable
define linkonce_odr hidden noundef ptr @_ZNKSt15__uniq_ptr_implIN5osgeo4proj8metadata21GeographicBoundingBox7PrivateESt14default_deleteIS4_EE6_M_ptrEv(ptr noundef nonnull align 8 dereferenceable(8) %0) #3 comdat align 2 {
  %2 = alloca ptr, align 8
  store ptr %0, ptr %2, align 8
  %3 = load ptr, ptr %2, align 8
  %4 = getelementptr inbounds %"class.std::__uniq_ptr_impl.20", ptr %3, i32 0, i32 0
  %5 = call noundef nonnull align 8 dereferenceable(8) ptr @_ZSt3getILm0EJPN5osgeo4proj8metadata21GeographicBoundingBox7PrivateESt14default_deleteIS4_EEERKNSt13tuple_elementIXT_ESt5tupleIJDpT0_EEE4typeERKSC_(ptr noundef nonnull align 8 dereferenceable(8) %4) #19
  %6 = load ptr, ptr %5, align 8
  ret ptr %6
}

; Function Attrs: mustprogress nounwind uwtable
define linkonce_odr hidden noundef ptr @_ZNKSt10unique_ptrIN5osgeo4proj8metadata21GeographicBoundingBox7PrivateESt14default_deleteIS4_EE3getEv(ptr noundef nonnull align 8 dereferenceable(8) %0) #3 comdat align 2 {
  %2 = alloca ptr, align 8
  store ptr %0, ptr %2, align 8
  %3 = load ptr, ptr %2, align 8
  %4 = getelementptr inbounds %"class.std::unique_ptr.18", ptr %3, i32 0, i32 0
  %5 = call noundef ptr @_ZNKSt15__uniq_ptr_implIN5osgeo4proj8metadata21GeographicBoundingBox7PrivateESt14default_deleteIS4_EE6_M_ptrEv(ptr noundef nonnull align 8 dereferenceable(8) %4) #19
  ret ptr %5
}

; Function Attrs: mustprogress nounwind uwtable
define linkonce_odr noundef ptr @_ZNKSt12__shared_ptrIN5osgeo4proj8metadata16GeographicExtentELN9__gnu_cxx12_Lock_policyE2EE3getEv(ptr noundef nonnull align 8 dereferenceable(16) %0) #3 comdat align 2 {
  %2 = alloca ptr, align 8
  store ptr %0, ptr %2, align 8
  %3 = load ptr, ptr %2, align 8
  %4 = getelementptr inbounds %"class.std::__shared_ptr.28", ptr %3, i32 0, i32 0
  %5 = load ptr, ptr %4, align 8
  ret ptr %5
}

; Function Attrs: mustprogress nounwind uwtable
define linkonce_odr hidden noundef ptr @_ZNKSt10unique_ptrIN5osgeo4proj8metadata21GeographicBoundingBox7PrivateESt14default_deleteIS4_EEptEv(ptr noundef nonnull align 8 dereferenceable(8) %0) #3 comdat align 2 {
  %2 = alloca ptr, align 8
  store ptr %0, ptr %2, align 8
  %3 = load ptr, ptr %2, align 8
  %4 = call noundef ptr @_ZNKSt10unique_ptrIN5osgeo4proj8metadata21GeographicBoundingBox7PrivateESt14default_deleteIS4_EE3getEv(ptr noundef nonnull align 8 dereferenceable(8) %3) #19
  ret ptr %4
}

; Function Attrs: mustprogress nounwind uwtable
define linkonce_odr hidden noundef ptr @_ZNK7dropbox6oxygen2nnISt10shared_ptrIN5osgeo4proj8metadata16GeographicExtentEEE3getIS7_EEPS6_v(ptr noundef nonnull align 8 dereferenceable(16) %0) #3 comdat align 2 {
  %2 = alloca ptr, align 8
  store ptr %0, ptr %2, align 8
  %3 = load ptr, ptr %2, align 8
  %4 = getelementptr inbounds %"class.dropbox::oxygen::nn.26", ptr %3, i32 0, i32 0
  %5 = call noundef ptr @_ZNKSt12__shared_ptrIN5osgeo4proj8metadata16GeographicExtentELN9__gnu_cxx12_Lock_policyE2EE3getEv(ptr noundef nonnull align 8 dereferenceable(16) %4) #19
  ret ptr %5
}

; Function Attrs: mustprogress uwtable
define hidden noundef zeroext i1 @_ZNK5osgeo4proj8metadata21GeographicBoundingBox8containsERKN7dropbox6oxygen2nnISt10shared_ptrINS1_16GeographicExtentEEEE(ptr noundef nonnull align 8 dereferenceable(40) %0, ptr noundef nonnull align 8 dereferenceable(16) %1) unnamed_addr #0 align 2 {
  %3 = alloca i1, align 1
  %4 = alloca ptr, align 8
  %5 = alloca ptr, align 8
  %6 = alloca ptr, align 8
  %7 = alloca double, align 8
  %8 = alloca double, align 8
  %9 = alloca double, align 8
  %10 = alloca double, align 8
  %11 = alloca double, align 8
  %12 = alloca double, align 8
  %13 = alloca double, align 8
  %14 = alloca double, align 8
  store ptr %0, ptr %4, align 8
  store ptr %1, ptr %5, align 8
  %15 = load ptr, ptr %4, align 8
  %16 = load ptr, ptr %5, align 8
  %17 = call noundef ptr @_ZNK7dropbox6oxygen2nnISt10shared_ptrIN5osgeo4proj8metadata16GeographicExtentEEE3getIS7_EEPS6_v(ptr noundef nonnull align 8 dereferenceable(16) %16)
  %18 = icmp eq ptr %17, null
  br i1 %18, label %21, label %19

19:                                               ; preds = %2
  %20 = call ptr @__dynamic_cast(ptr %17, ptr @_ZTIN5osgeo4proj8metadata16GeographicExtentE, ptr @_ZTIN5osgeo4proj8metadata21GeographicBoundingBoxE, i64 0) #19
  br label %22

21:                                               ; preds = %2
  br label %22

22:                                               ; preds = %21, %19
  %23 = phi ptr [ %20, %19 ], [ null, %21 ]
  store ptr %23, ptr %6, align 8
  %24 = load ptr, ptr %6, align 8
  %25 = icmp ne ptr %24, null
  br i1 %25, label %27, label %26

26:                                               ; preds = %22
  store i1 false, ptr %3, align 1
  br label %133

27:                                               ; preds = %22
  %28 = getelementptr inbounds %"class.osgeo::proj::metadata::GeographicBoundingBox", ptr %15, i32 0, i32 1
  %29 = call noundef ptr @_ZNKSt10unique_ptrIN5osgeo4proj8metadata21GeographicBoundingBox7PrivateESt14default_deleteIS4_EEptEv(ptr noundef nonnull align 8 dereferenceable(8) %28) #19
  %30 = getelementptr inbounds %"struct.osgeo::proj::metadata::GeographicBoundingBox::Private", ptr %29, i32 0, i32 0
  %31 = load double, ptr %30, align 8
  store double %31, ptr %7, align 8
  %32 = getelementptr inbounds %"class.osgeo::proj::metadata::GeographicBoundingBox", ptr %15, i32 0, i32 1
  %33 = call noundef ptr @_ZNKSt10unique_ptrIN5osgeo4proj8metadata21GeographicBoundingBox7PrivateESt14default_deleteIS4_EEptEv(ptr noundef nonnull align 8 dereferenceable(8) %32) #19
  %34 = getelementptr inbounds %"struct.osgeo::proj::metadata::GeographicBoundingBox::Private", ptr %33, i32 0, i32 2
  %35 = load double, ptr %34, align 8
  store double %35, ptr %8, align 8
  %36 = getelementptr inbounds %"class.osgeo::proj::metadata::GeographicBoundingBox", ptr %15, i32 0, i32 1
  %37 = call noundef ptr @_ZNKSt10unique_ptrIN5osgeo4proj8metadata21GeographicBoundingBox7PrivateESt14default_deleteIS4_EEptEv(ptr noundef nonnull align 8 dereferenceable(8) %36) #19
  %38 = getelementptr inbounds %"struct.osgeo::proj::metadata::GeographicBoundingBox::Private", ptr %37, i32 0, i32 3
  %39 = load double, ptr %38, align 8
  store double %39, ptr %9, align 8
  %40 = getelementptr inbounds %"class.osgeo::proj::metadata::GeographicBoundingBox", ptr %15, i32 0, i32 1
  %41 = call noundef ptr @_ZNKSt10unique_ptrIN5osgeo4proj8metadata21GeographicBoundingBox7PrivateESt14default_deleteIS4_EEptEv(ptr noundef nonnull align 8 dereferenceable(8) %40) #19
  %42 = getelementptr inbounds %"struct.osgeo::proj::metadata::GeographicBoundingBox::Private", ptr %41, i32 0, i32 1
  %43 = load double, ptr %42, align 8
  store double %43, ptr %10, align 8
  %44 = load ptr, ptr %6, align 8
  %45 = getelementptr inbounds %"class.osgeo::proj::metadata::GeographicBoundingBox", ptr %44, i32 0, i32 1
  %46 = call noundef ptr @_ZNKSt10unique_ptrIN5osgeo4proj8metadata21GeographicBoundingBox7PrivateESt14default_deleteIS4_EEptEv(ptr noundef nonnull align 8 dereferenceable(8) %45) #19
  %47 = getelementptr inbounds %"struct.osgeo::proj::metadata::GeographicBoundingBox::Private", ptr %46, i32 0, i32 0
  %48 = load double, ptr %47, align 8
  store double %48, ptr %11, align 8
  %49 = load ptr, ptr %6, align 8
  %50 = getelementptr inbounds %"class.osgeo::proj::metadata::GeographicBoundingBox", ptr %49, i32 0, i32 1
  %51 = call noundef ptr @_ZNKSt10unique_ptrIN5osgeo4proj8metadata21GeographicBoundingBox7PrivateESt14default_deleteIS4_EEptEv(ptr noundef nonnull align 8 dereferenceable(8) %50) #19
  %52 = getelementptr inbounds %"struct.osgeo::proj::metadata::GeographicBoundingBox::Private", ptr %51, i32 0, i32 2
  %53 = load double, ptr %52, align 8
  store double %53, ptr %12, align 8
  %54 = load ptr, ptr %6, align 8
  %55 = getelementptr inbounds %"class.osgeo::proj::metadata::GeographicBoundingBox", ptr %54, i32 0, i32 1
  %56 = call noundef ptr @_ZNKSt10unique_ptrIN5osgeo4proj8metadata21GeographicBoundingBox7PrivateESt14default_deleteIS4_EEptEv(ptr noundef nonnull align 8 dereferenceable(8) %55) #19
  %57 = getelementptr inbounds %"struct.osgeo::proj::metadata::GeographicBoundingBox::Private", ptr %56, i32 0, i32 3
  %58 = load double, ptr %57, align 8
  store double %58, ptr %13, align 8
  %59 = load ptr, ptr %6, align 8
  %60 = getelementptr inbounds %"class.osgeo::proj::metadata::GeographicBoundingBox", ptr %59, i32 0, i32 1
  %61 = call noundef ptr @_ZNKSt10unique_ptrIN5osgeo4proj8metadata21GeographicBoundingBox7PrivateESt14default_deleteIS4_EEptEv(ptr noundef nonnull align 8 dereferenceable(8) %60) #19
  %62 = getelementptr inbounds %"struct.osgeo::proj::metadata::GeographicBoundingBox::Private", ptr %61, i32 0, i32 1
  %63 = load double, ptr %62, align 8
  store double %63, ptr %14, align 8
  %64 = load double, ptr %10, align 8
  %65 = load double, ptr %14, align 8
  %66 = fcmp ole double %64, %65
  br i1 %66, label %67, label %71

67:                                               ; preds = %27
  %68 = load double, ptr %9, align 8
  %69 = load double, ptr %13, align 8
  %70 = fcmp oge double %68, %69
  br i1 %70, label %72, label %71

71:                                               ; preds = %67, %27
  store i1 false, ptr %3, align 1
  br label %133

72:                                               ; preds = %67
  %73 = load double, ptr %7, align 8
  %74 = fcmp oeq double %73, -1.800000e+02
  br i1 %74, label %75, label %82

75:                                               ; preds = %72
  %76 = load double, ptr %8, align 8
  %77 = fcmp oeq double %76, 1.800000e+02
  br i1 %77, label %78, label %82

78:                                               ; preds = %75
  %79 = load double, ptr %11, align 8
  %80 = load double, ptr %12, align 8
  %81 = fcmp une double %79, %80
  store i1 %81, ptr %3, align 1
  br label %133

82:                                               ; preds = %75, %72
  %83 = load double, ptr %11, align 8
  %84 = fcmp oeq double %83, -1.800000e+02
  br i1 %84, label %85, label %89

85:                                               ; preds = %82
  %86 = load double, ptr %12, align 8
  %87 = fcmp oeq double %86, 1.800000e+02
  br i1 %87, label %88, label %89

88:                                               ; preds = %85
  store i1 false, ptr %3, align 1
  br label %133

89:                                               ; preds = %85, %82
  %90 = load double, ptr %7, align 8
  %91 = load double, ptr %8, align 8
  %92 = fcmp olt double %90, %91
  br i1 %92, label %93, label %108

93:                                               ; preds = %89
  %94 = load double, ptr %11, align 8
  %95 = load double, ptr %12, align 8
  %96 = fcmp olt double %94, %95
  br i1 %96, label %97, label %107

97:                                               ; preds = %93
  %98 = load double, ptr %7, align 8
  %99 = load double, ptr %11, align 8
  %100 = fcmp ole double %98, %99
  br i1 %100, label %101, label %105

101:                                              ; preds = %97
  %102 = load double, ptr %8, align 8
  %103 = load double, ptr %12, align 8
  %104 = fcmp oge double %102, %103
  br label %105

105:                                              ; preds = %101, %97
  %106 = phi i1 [ false, %97 ], [ %104, %101 ]
  store i1 %106, ptr %3, align 1
  br label %133

107:                                              ; preds = %93
  store i1 false, ptr %3, align 1
  br label %133

108:                                              ; preds = %89
  %109 = load double, ptr %11, align 8
  %110 = load double, ptr %12, align 8
  %111 = fcmp olt double %109, %110
  br i1 %111, label %112, label %123

112:                                              ; preds = %108
  %113 = load double, ptr %11, align 8
  %114 = load double, ptr %7, align 8
  %115 = fcmp oge double %113, %114
  br i1 %115, label %116, label %117

116:                                              ; preds = %112
  store i1 true, ptr %3, align 1
  br label %133

117:                                              ; preds = %112
  %118 = load double, ptr %12, align 8
  %119 = load double, ptr %8, align 8
  %120 = fcmp ole double %118, %119
  br i1 %120, label %121, label %122

121:                                              ; preds = %117
  store i1 true, ptr %3, align 1
  br label %133

122:                                              ; preds = %117
  store i1 false, ptr %3, align 1
  br label %133

123:                                              ; preds = %108
  %124 = load double, ptr %7, align 8
  %125 = load double, ptr %11, align 8
  %126 = fcmp ole double %124, %125
  br i1 %126, label %127, label %131

127:                                              ; preds = %123
  %128 = load double, ptr %8, align 8
  %129 = load double, ptr %12, align 8
  %130 = fcmp oge double %128, %129
  br label %131

131:                                              ; preds = %127, %123
  %132 = phi i1 [ false, %123 ], [ %130, %127 ]
  store i1 %132, ptr %3, align 1
  br label %133

133:                                              ; preds = %131, %122, %121, %116, %107, %105, %88, %78, %71, %26
  %134 = load i1, ptr %3, align 1
  ret i1 %134
}