; Function Attrs: mustprogress nofree nounwind willreturn memory(read) uwtable
define hidden noundef zeroext i1 @_ZNK5osgeo4proj8metadata21GeographicBoundingBox8containsERKN7dropbox6oxygen2nnISt10shared_ptrINS1_16GeographicExtentEEEE(ptr nocapture noundef nonnull readonly align 8 dereferenceable(40) %0, ptr nocapture noundef nonnull readonly align 8 dereferenceable(16) %1) unnamed_addr #11 align 2 {
  %3 = load ptr, ptr %1, align 8
  %4 = icmp eq ptr %3, null
  br i1 %4, label %.thread, label %5

5:                                                ; preds = %2
  %6 = tail call ptr @__dynamic_cast(ptr nonnull %3, ptr nonnull @_ZTIN5osgeo4proj8metadata16GeographicExtentE, ptr nonnull @_ZTIN5osgeo4proj8metadata21GeographicBoundingBoxE, i64 0) #28
  %.not = icmp eq ptr %6, null
  br i1 %.not, label %.thread, label %7

7:                                                ; preds = %5
  %8 = getelementptr inbounds i8, ptr %0, i64 32
  %9 = load ptr, ptr %8, align 8
  %10 = load double, ptr %9, align 8
  %11 = getelementptr inbounds i8, ptr %9, i64 16
  %12 = load double, ptr %11, align 8
  %13 = getelementptr inbounds i8, ptr %9, i64 24
  %14 = load double, ptr %13, align 8
  %15 = getelementptr inbounds i8, ptr %9, i64 8
  %16 = load double, ptr %15, align 8
  %17 = getelementptr inbounds i8, ptr %6, i64 32
  %18 = load ptr, ptr %17, align 8
  %19 = load double, ptr %18, align 8
  %20 = getelementptr inbounds i8, ptr %18, i64 16
  %21 = load double, ptr %20, align 8
  %22 = getelementptr inbounds i8, ptr %18, i64 24
  %23 = load double, ptr %22, align 8
  %24 = getelementptr inbounds i8, ptr %18, i64 8
  %25 = load double, ptr %24, align 8
  %26 = fcmp ugt double %16, %25
  %27 = fcmp ult double %14, %23
  %or.cond49 = select i1 %26, i1 true, i1 %27
  br i1 %or.cond49, label %.thread, label %28

28:                                               ; preds = %7
  %29 = fcmp oeq double %10, -1.800000e+02
  %30 = fcmp oeq double %12, 1.800000e+02
  %or.cond = select i1 %29, i1 %30, i1 false
  br i1 %or.cond, label %31, label %33

31:                                               ; preds = %28
  %32 = fcmp une double %19, %21
  br label %.thread

33:                                               ; preds = %28
  %34 = fcmp oeq double %19, -1.800000e+02
  %35 = fcmp oeq double %21, 1.800000e+02
  %or.cond3 = select i1 %34, i1 %35, i1 false
  br i1 %or.cond3, label %.thread, label %36

36:                                               ; preds = %33
  %37 = fcmp olt double %10, %12
  %38 = fcmp olt double %19, %21
  br i1 %37, label %39, label %44

39:                                               ; preds = %36
  br i1 %38, label %40, label %.thread

40:                                               ; preds = %39
  %41 = fcmp ole double %10, %19
  %42 = fcmp oge double %12, %21
  %43 = select i1 %41, i1 %42, i1 false
  br label %.thread

44:                                               ; preds = %36
  br i1 %38, label %45, label %49

45:                                               ; preds = %44
  %46 = fcmp ult double %19, %10
  br i1 %46, label %47, label %.thread

47:                                               ; preds = %45
  %48 = fcmp ole double %21, %12
  br label %.thread

49:                                               ; preds = %44
  %50 = fcmp ole double %10, %19
  %51 = fcmp oge double %12, %21
  %52 = select i1 %50, i1 %51, i1 false
  br label %.thread

.thread:                                          ; preds = %2, %47, %45, %39, %33, %7, %5, %49, %40, %31
  %.0 = phi i1 [ %32, %31 ], [ %43, %40 ], [ %52, %49 ], [ false, %5 ], [ false, %7 ], [ false, %33 ], [ false, %39 ], [ true, %45 ], [ %48, %47 ], [ false, %2 ]
  ret i1 %.0
}